; Function Attrs: mustprogress uwtable
define void @_ZN5arrow2io16HadoopFileSystem5ChmodERKNSt7__cxx1112basic_stringIcSt11char_traitsIcESaIcEEEi(ptr noalias sret(%"class.arrow::Status") align 8 %agg.result, ptr nocapture noundef nonnull readonly align 8 dereferenceable(16) %this, ptr noundef nonnull align 8 dereferenceable(32) %path, i32 noundef %mode) local_unnamed_addr #0 align 2 {
entry:
  %impl_ = getelementptr inbounds i8, ptr %this, i64 8
  %0 = load ptr, ptr %impl_, align 8
  tail call void @llvm.experimental.noalias.scope.decl(metadata !324)
  %1 = load ptr, ptr %0, align 8, !noalias !324
  %fs_.i = getelementptr inbounds i8, ptr %0, i64 112
  %2 = load ptr, ptr %fs_.i, align 8, !noalias !324
  %call.i = tail call noundef ptr @_ZNKSt7__cxx1112basic_stringIcSt11char_traitsIcESaIcEE5c_strEv(ptr noundef nonnull align 8 dereferenceable(32) %path) #21, !noalias !324
  %conv.i = trunc i32 %mode to i16
  %call2.i = tail call noundef i32 @_ZN5arrow2io8internal11LibHdfsShim5ChmodEP13hdfs_internalPKcs(ptr noundef nonnull align 8 dereferenceable(312) %1, ptr noundef %2, ptr noundef %call.i, i16 noundef signext %conv.i), !noalias !324
  %cmp.i = icmp eq i32 %call2.i, -1
  br i1 %cmp.i, label %if.then.i, label %do.end.i

if.then.i:                                        ; preds = %entry
  %call3.i = tail call ptr @__errno_location() #23
  %3 = load i32, ptr %call3.i, align 4, !noalias !324
  tail call void @_ZN5arrow8internal15StatusFromErrnoIJRA6_KcS4_RA8_S2_EEENS_6StatusEiNS_10StatusCodeEDpOT_(ptr sret(%"class.arrow::Status") align 8 %agg.result, i32 noundef %3, i8 noundef signext 5, ptr noundef nonnull align 1 dereferenceable(6) @.str.2, ptr noundef nonnull align 1 dereferenceable(6) @.str.26, ptr noundef nonnull align 1 dereferenceable(8) @.str.4)
  br label %_ZN5arrow2io16HadoopFileSystem20HadoopFileSystemImpl5ChmodERKNSt7__cxx1112basic_stringIcSt11char_traitsIcESaIcEEEi.exit

do.end.i:                                         ; preds = %entry
  store ptr null, ptr %agg.result, align 8, !alias.scope !327
  br label %_ZN5arrow2io16HadoopFileSystem20HadoopFileSystemImpl5ChmodERKNSt7__cxx1112basic_stringIcSt11char_traitsIcESaIcEEEi.exit

_ZN5arrow2io16HadoopFileSystem20HadoopFileSystemImpl5ChmodERKNSt7__cxx1112basic_stringIcSt11char_traitsIcESaIcEEEi.exit: ; preds = %if.then.i, %do.end.i
  ret void
}